target datalayout = "e-m:e-p270:32:32-p271:32:32-p272:64:64-i64:64-i128:128-f80:128-n8:16:32:64-S128"
target triple = "x86_64-pc-linux-gnu"

%struct.ARKodeMemRec = type { ptr, double, ptr, i32, i32, double, double, ptr, i32, double, ptr, i32, i32, ptr, ptr, i32, ptr, ptr, i32, ptr, ptr, ptr, ptr, ptr, ptr, ptr, ptr, ptr, ptr, ptr, ptr, ptr, ptr, ptr, i32, ptr, ptr, i32, ptr, i32, ptr, ptr, ptr, ptr, ptr, ptr, ptr, ptr, ptr, ptr, ptr, ptr, ptr, ptr, ptr, ptr, ptr, ptr, ptr, ptr, ptr, ptr, ptr, ptr, ptr, ptr, i32, ptr, ptr, ptr, ptr, ptr, ptr, ptr, i32, ptr, ptr, ptr, i32, ptr, ptr, ptr, ptr, ptr, ptr, ptr, i32, i32, i32, i32, double, double, double, double, double, double, double, double, double, double, i32, ptr, i64, i32, i32, i32, i32, i64, i64, i32, i64, i64, i64, i64, i64, i64, i64, double, double, double, double, double, i32, double, double, i32, i32, i32, i32, i32, i32, i32, i32, ptr, i32, ptr, ptr, ptr, ptr, i32, i32, i32 }
%struct._generic_N_Vector = type { ptr, ptr, ptr }
%struct._generic_N_Vector_Ops = type { ptr, ptr, ptr, ptr, ptr, ptr, ptr, ptr, ptr, ptr, ptr, ptr, ptr, ptr, ptr, ptr, ptr, ptr, ptr, ptr, ptr, ptr, ptr, ptr, ptr, ptr, ptr, ptr, ptr, ptr, ptr, ptr, ptr, ptr, ptr, ptr, ptr, ptr, ptr, ptr, ptr, ptr, ptr, ptr, ptr, ptr, ptr, ptr, ptr, ptr, ptr, ptr, ptr, ptr, ptr, ptr }

@.str = private unnamed_addr constant [115 x i8] c"generated/home/dtcxzyw/WorkSpace/Projects/compilers/llvm-opt-benchmark/bench/sundials/sundials/src/arkode/arkode.c\00", align 1
@.str.1 = private unnamed_addr constant [27 x i8] c"arkode_mem = NULL illegal.\00", align 1
@.str.2 = private unnamed_addr constant [35 x i8] c"Attempt to call before ARKodeInit.\00", align 1
@.str.7 = private unnamed_addr constant [20 x i8] c"reltol < 0 illegal.\00", align 1
@.str.8 = private unnamed_addr constant [44 x i8] c"abstol has negative component(s) (illegal).\00", align 1
@__func__.ARKodeSVtolerances = private unnamed_addr constant [19 x i8] c"ARKodeSVtolerances\00", align 1
@.str.9 = private unnamed_addr constant [23 x i8] c"abstol = NULL illegal.\00", align 1
@.str.10 = private unnamed_addr constant [37 x i8] c"Missing N_VMin routine from N_Vector\00", align 1
@.str.11 = private unnamed_addr constant [33 x i8] c"Allocation of arkode_mem failed.\00", align 1

; Function Attrs: nounwind uwtable
define i32 @ARKodeSVtolerances(ptr noundef %0, double noundef %1, ptr noundef %2) #0 {
  %4 = alloca i32, align 4
  %5 = alloca ptr, align 8
  %6 = alloca double, align 8
  %7 = alloca ptr, align 8
  %8 = alloca double, align 8
  %9 = alloca ptr, align 8
  %10 = alloca i32, align 4
  store ptr %0, ptr %5, align 8, !tbaa !3
  store double %1, ptr %6, align 8, !tbaa !9
  store ptr %2, ptr %7, align 8, !tbaa !7
  call void @llvm.lifetime.start.p0(i64 8, ptr %8) #10
  call void @llvm.lifetime.start.p0(i64 8, ptr %9) #10
  %11 = load ptr, ptr %5, align 8, !tbaa !3
  %12 = icmp eq ptr %11, null
  br i1 %12, label %13, label %14

13:                                               ; preds = %3
  call void (ptr, i32, i32, ptr, ptr, ptr, ...) @arkProcessError(ptr noundef null, i32 noundef -21, i32 noundef 300, ptr noundef @__func__.ARKodeSVtolerances, ptr noundef @.str, ptr noundef @.str.1)
  store i32 -21, ptr %4, align 4
  store i32 1, ptr %10, align 4
  br label %89

14:                                               ; preds = %3
  %15 = load ptr, ptr %5, align 8, !tbaa !3
  store ptr %15, ptr %9, align 8, !tbaa !11
  %16 = load ptr, ptr %9, align 8, !tbaa !11
  %17 = getelementptr inbounds nuw %struct.ARKodeMemRec, ptr %16, i32 0, i32 127
  %18 = load i32, ptr %17, align 8, !tbaa !13
  %19 = icmp eq i32 %18, 0
  br i1 %19, label %20, label %22

20:                                               ; preds = %14
  %21 = load ptr, ptr %9, align 8, !tbaa !11
  call void (ptr, i32, i32, ptr, ptr, ptr, ...) @arkProcessError(ptr noundef %21, i32 noundef -23, i32 noundef 309, ptr noundef @__func__.ARKodeSVtolerances, ptr noundef @.str, ptr noundef @.str.2)
  store i32 -23, ptr %4, align 4
  store i32 1, ptr %10, align 4
  br label %89

22:                                               ; preds = %14
  %23 = load double, ptr %6, align 8, !tbaa !9
  %24 = fcmp olt double %23, 0.000000e+00
  br i1 %24, label %25, label %27

25:                                               ; preds = %22
  %26 = load ptr, ptr %9, align 8, !tbaa !11
  call void (ptr, i32, i32, ptr, ptr, ptr, ...) @arkProcessError(ptr noundef %26, i32 noundef -22, i32 noundef 315, ptr noundef @__func__.ARKodeSVtolerances, ptr noundef @.str, ptr noundef @.str.7)
  store i32 -22, ptr %4, align 4
  store i32 1, ptr %10, align 4
  br label %89

27:                                               ; preds = %22
  %28 = load ptr, ptr %7, align 8, !tbaa !7
  %29 = icmp eq ptr %28, null
  br i1 %29, label %30, label %32

30:                                               ; preds = %27
  %31 = load ptr, ptr %9, align 8, !tbaa !11
  call void (ptr, i32, i32, ptr, ptr, ptr, ...) @arkProcessError(ptr noundef %31, i32 noundef -22, i32 noundef 321, ptr noundef @__func__.ARKodeSVtolerances, ptr noundef @.str, ptr noundef @.str.9)
  store i32 -22, ptr %4, align 4
  store i32 1, ptr %10, align 4
  br label %89

32:                                               ; preds = %27
  %33 = load ptr, ptr %7, align 8, !tbaa !7
  %34 = getelementptr inbounds nuw %struct._generic_N_Vector, ptr %33, i32 0, i32 1
  %35 = load ptr, ptr %34, align 8, !tbaa !31
  %36 = getelementptr inbounds nuw %struct._generic_N_Vector_Ops, ptr %35, i32 0, i32 23
  %37 = load ptr, ptr %36, align 8, !tbaa !86
  %38 = icmp eq ptr %37, null
  br i1 %38, label %39, label %41

39:                                               ; preds = %32
  %40 = load ptr, ptr %9, align 8, !tbaa !11
  call void (ptr, i32, i32, ptr, ptr, ptr, ...) @arkProcessError(ptr noundef %40, i32 noundef -22, i32 noundef 327, ptr noundef @__func__.ARKodeSVtolerances, ptr noundef @.str, ptr noundef @.str.10)
  store i32 -22, ptr %4, align 4
  store i32 1, ptr %10, align 4
  br label %89

41:                                               ; preds = %32
  %42 = load ptr, ptr %7, align 8, !tbaa !7
  %43 = call double @N_VMin(ptr noundef %42)
  store double %43, ptr %8, align 8, !tbaa !9
  %44 = load double, ptr %8, align 8, !tbaa !9
  %45 = fcmp olt double %44, 0.000000e+00
  br i1 %45, label %46, label %48

46:                                               ; preds = %41
  %47 = load ptr, ptr %9, align 8, !tbaa !11
  call void (ptr, i32, i32, ptr, ptr, ptr, ...) @arkProcessError(ptr noundef %47, i32 noundef -22, i32 noundef 334, ptr noundef @__func__.ARKodeSVtolerances, ptr noundef @.str, ptr noundef @.str.8)
  store i32 -22, ptr %4, align 4
  store i32 1, ptr %10, align 4
  br label %89

48:                                               ; preds = %41
  %49 = load double, ptr %8, align 8, !tbaa !9
  %50 = fcmp oeq double %49, 0.000000e+00
  %51 = zext i1 %50 to i32
  %52 = load ptr, ptr %9, align 8, !tbaa !11
  %53 = getelementptr inbounds nuw %struct.ARKodeMemRec, ptr %52, i32 0, i32 8
  store i32 %51, ptr %53, align 8, !tbaa !78
  %54 = load ptr, ptr %9, align 8, !tbaa !11
  %55 = getelementptr inbounds nuw %struct.ARKodeMemRec, ptr %54, i32 0, i32 125
  %56 = load i32, ptr %55, align 8, !tbaa !87
  %57 = icmp ne i32 %56, 0
  br i1 %57, label %72, label %58

58:                                               ; preds = %48
  %59 = load ptr, ptr %9, align 8, !tbaa !11
  %60 = load ptr, ptr %9, align 8, !tbaa !11
  %61 = getelementptr inbounds nuw %struct.ARKodeMemRec, ptr %60, i32 0, i32 72
  %62 = load ptr, ptr %61, align 8, !tbaa !56
  %63 = load ptr, ptr %9, align 8, !tbaa !11
  %64 = getelementptr inbounds nuw %struct.ARKodeMemRec, ptr %63, i32 0, i32 7
  %65 = call i32 @arkAllocVec(ptr noundef %59, ptr noundef %62, ptr noundef %64)
  %66 = icmp ne i32 %65, 0
  br i1 %66, label %69, label %67

67:                                               ; preds = %58
  %68 = load ptr, ptr %9, align 8, !tbaa !11
  call void (ptr, i32, i32, ptr, ptr, ptr, ...) @arkProcessError(ptr noundef %68, i32 noundef -20, i32 noundef 347, ptr noundef @__func__.ARKodeSVtolerances, ptr noundef @.str, ptr noundef @.str.11)
  store i32 -22, ptr %4, align 4
  store i32 1, ptr %10, align 4
  br label %89

69:                                               ; preds = %58
  %70 = load ptr, ptr %9, align 8, !tbaa !11
  %71 = getelementptr inbounds nuw %struct.ARKodeMemRec, ptr %70, i32 0, i32 125
  store i32 1, ptr %71, align 8, !tbaa !87
  br label %72

72:                                               ; preds = %69, %48
  %73 = load ptr, ptr %7, align 8, !tbaa !7
  %74 = load ptr, ptr %9, align 8, !tbaa !11
  %75 = getelementptr inbounds nuw %struct.ARKodeMemRec, ptr %74, i32 0, i32 7
  %76 = load ptr, ptr %75, align 8, !tbaa !88
  call void @N_VScale(double noundef 1.000000e+00, ptr noundef %73, ptr noundef %76)
  %77 = load double, ptr %6, align 8, !tbaa !9
  %78 = load ptr, ptr %9, align 8, !tbaa !11
  %79 = getelementptr inbounds nuw %struct.ARKodeMemRec, ptr %78, i32 0, i32 5
  store double %77, ptr %79, align 8, !tbaa !79
  %80 = load ptr, ptr %9, align 8, !tbaa !11
  %81 = getelementptr inbounds nuw %struct.ARKodeMemRec, ptr %80, i32 0, i32 3
  store i32 1, ptr %81, align 8, !tbaa !81
  %82 = load ptr, ptr %9, align 8, !tbaa !11
  %83 = getelementptr inbounds nuw %struct.ARKodeMemRec, ptr %82, i32 0, i32 12
  store i32 0, ptr %83, align 4, !tbaa !82
  %84 = load ptr, ptr %9, align 8, !tbaa !11
  %85 = getelementptr inbounds nuw %struct.ARKodeMemRec, ptr %84, i32 0, i32 13
  store ptr @arkEwtSetSV, ptr %85, align 8, !tbaa !83
  %86 = load ptr, ptr %9, align 8, !tbaa !11
  %87 = load ptr, ptr %9, align 8, !tbaa !11
  %88 = getelementptr inbounds nuw %struct.ARKodeMemRec, ptr %87, i32 0, i32 14
  store ptr %86, ptr %88, align 8, !tbaa !84
  store i32 0, ptr %4, align 4
  store i32 1, ptr %10, align 4
  br label %89

89:                                               ; preds = %72, %67, %46, %39, %30, %25, %20, %13
  call void @llvm.lifetime.end.p0(i64 8, ptr %9) #10
  call void @llvm.lifetime.end.p0(i64 8, ptr %8) #10
  %90 = load i32, ptr %4, align 4
  ret i32 %90
}