; Function Attrs: nounwind uwtable
define range(i32 -23, 1) i32 @ARKodeSVtolerances(ptr noundef %0, double noundef %1, ptr noundef %2) local_unnamed_addr #0 {
  %4 = icmp eq ptr %0, null
  br i1 %4, label %5, label %6

5:                                                ; preds = %3
  tail call void (ptr, i32, i32, ptr, ptr, ptr, ...) @arkProcessError(ptr noundef null, i32 noundef -21, i32 noundef 300, ptr noundef nonnull @__func__.ARKodeSVtolerances, ptr noundef nonnull @.str, ptr noundef nonnull @.str.1)
  br label %49

6:                                                ; preds = %3
  %7 = getelementptr inbounds nuw i8, ptr %0, i64 960
  %8 = load i32, ptr %7, align 8, !tbaa !3
  %9 = icmp eq i32 %8, 0
  br i1 %9, label %10, label %11

10:                                               ; preds = %6
  tail call void (ptr, i32, i32, ptr, ptr, ptr, ...) @arkProcessError(ptr noundef nonnull %0, i32 noundef -23, i32 noundef 309, ptr noundef nonnull @__func__.ARKodeSVtolerances, ptr noundef nonnull @.str, ptr noundef nonnull @.str.2)
  br label %49

11:                                               ; preds = %6
  %12 = fcmp olt double %1, 0.000000e+00
  br i1 %12, label %13, label %14

13:                                               ; preds = %11
  tail call void (ptr, i32, i32, ptr, ptr, ptr, ...) @arkProcessError(ptr noundef nonnull %0, i32 noundef -22, i32 noundef 315, ptr noundef nonnull @__func__.ARKodeSVtolerances, ptr noundef nonnull @.str, ptr noundef nonnull @.str.7)
  br label %49

14:                                               ; preds = %11
  %15 = icmp eq ptr %2, null
  br i1 %15, label %16, label %17

16:                                               ; preds = %14
  tail call void (ptr, i32, i32, ptr, ptr, ptr, ...) @arkProcessError(ptr noundef nonnull %0, i32 noundef -22, i32 noundef 321, ptr noundef nonnull @__func__.ARKodeSVtolerances, ptr noundef nonnull @.str, ptr noundef nonnull @.str.9)
  br label %49

17:                                               ; preds = %14
  %18 = getelementptr inbounds nuw i8, ptr %2, i64 8
  %19 = load ptr, ptr %18, align 8, !tbaa !26
  %20 = getelementptr inbounds nuw i8, ptr %19, i64 184
  %21 = load ptr, ptr %20, align 8, !tbaa !92
  %22 = icmp eq ptr %21, null
  br i1 %22, label %23, label %24

23:                                               ; preds = %17
  tail call void (ptr, i32, i32, ptr, ptr, ptr, ...) @arkProcessError(ptr noundef nonnull %0, i32 noundef -22, i32 noundef 327, ptr noundef nonnull @__func__.ARKodeSVtolerances, ptr noundef nonnull @.str, ptr noundef nonnull @.str.10)
  br label %49

24:                                               ; preds = %17
  %25 = tail call double @N_VMin(ptr noundef nonnull %2) #16
  %26 = fcmp olt double %25, 0.000000e+00
  br i1 %26, label %27, label %28

27:                                               ; preds = %24
  tail call void (ptr, i32, i32, ptr, ptr, ptr, ...) @arkProcessError(ptr noundef nonnull %0, i32 noundef -22, i32 noundef 334, ptr noundef nonnull @__func__.ARKodeSVtolerances, ptr noundef nonnull @.str, ptr noundef nonnull @.str.8)
  br label %49

28:                                               ; preds = %24
  %29 = fcmp oeq double %25, 0.000000e+00
  %30 = zext i1 %29 to i32
  %31 = getelementptr inbounds nuw i8, ptr %0, i64 56
  store i32 %30, ptr %31, align 8, !tbaa !84
  %32 = getelementptr inbounds nuw i8, ptr %0, i64 952
  %33 = load i32, ptr %32, align 8, !tbaa !93
  %.not = icmp eq i32 %33, 0
  br i1 %.not, label %34, label %41

34:                                               ; preds = %28
  %35 = getelementptr inbounds nuw i8, ptr %0, i64 560
  %36 = load ptr, ptr %35, align 8, !tbaa !56
  %37 = getelementptr inbounds nuw i8, ptr %0, i64 48
  %38 = tail call i32 @arkAllocVec(ptr noundef nonnull %0, ptr noundef %36, ptr noundef nonnull %37)
  %.not34 = icmp eq i32 %38, 0
  br i1 %.not34, label %39, label %40

39:                                               ; preds = %34
  tail call void (ptr, i32, i32, ptr, ptr, ptr, ...) @arkProcessError(ptr noundef nonnull %0, i32 noundef -20, i32 noundef 347, ptr noundef nonnull @__func__.ARKodeSVtolerances, ptr noundef nonnull @.str, ptr noundef nonnull @.str.11)
  br label %49

40:                                               ; preds = %34
  store i32 1, ptr %32, align 8, !tbaa !93
  br label %41

41:                                               ; preds = %40, %28
  %42 = getelementptr inbounds nuw i8, ptr %0, i64 48
  %43 = load ptr, ptr %42, align 8, !tbaa !94
  tail call void @N_VScale(double noundef 1.000000e+00, ptr noundef nonnull %2, ptr noundef %43) #16
  %44 = getelementptr inbounds nuw i8, ptr %0, i64 32
  store double %1, ptr %44, align 8, !tbaa !85
  %45 = getelementptr inbounds nuw i8, ptr %0, i64 24
  store i32 1, ptr %45, align 8, !tbaa !87
  %46 = getelementptr inbounds nuw i8, ptr %0, i64 84
  store i32 0, ptr %46, align 4, !tbaa !88
  %47 = getelementptr inbounds nuw i8, ptr %0, i64 88
  store ptr @arkEwtSetSV, ptr %47, align 8, !tbaa !89
  %48 = getelementptr inbounds nuw i8, ptr %0, i64 96
  store ptr %0, ptr %48, align 8, !tbaa !90
  br label %49

49:                                               ; preds = %41, %39, %27, %23, %16, %13, %10, %5
  %.0 = phi i32 [ -21, %5 ], [ -23, %10 ], [ -22, %13 ], [ -22, %16 ], [ -22, %23 ], [ -22, %27 ], [ 0, %41 ], [ -22, %39 ]
  ret i32 %.0
}